target datalayout = "e-m:e-p270:32:32-p271:32:32-p272:64:64-i64:64-i128:128-f80:128-n8:16:32:64-S128"
target triple = "x86_64-pc-linux-gnu"

; Function Attrs: mustprogress nounwind uwtable
define dso_local i64 @meshopt_buildMeshletsBound(i64 noundef %0, i64 noundef %1, i64 noundef %2) #0 {
  %4 = alloca i64, align 8
  %5 = alloca i64, align 8
  %6 = alloca i64, align 8
  %7 = alloca i64, align 8
  %8 = alloca i64, align 8
  %9 = alloca i64, align 8
  store i64 %0, ptr %4, align 8, !tbaa !4
  store i64 %1, ptr %5, align 8, !tbaa !4
  store i64 %2, ptr %6, align 8, !tbaa !4
  call void @llvm.lifetime.start.p0(i64 8, ptr %7) #11
  %10 = load i64, ptr %5, align 8, !tbaa !4
  %11 = sub i64 %10, 2
  store i64 %11, ptr %7, align 8, !tbaa !4
  call void @llvm.lifetime.start.p0(i64 8, ptr %8) #11
  %12 = load i64, ptr %4, align 8, !tbaa !4
  %13 = load i64, ptr %7, align 8, !tbaa !4
  %14 = add i64 %12, %13
  %15 = sub i64 %14, 1
  %16 = load i64, ptr %7, align 8, !tbaa !4
  %17 = udiv i64 %15, %16
  store i64 %17, ptr %8, align 8, !tbaa !4
  call void @llvm.lifetime.start.p0(i64 8, ptr %9) #11
  %18 = load i64, ptr %4, align 8, !tbaa !4
  %19 = udiv i64 %18, 3
  %20 = load i64, ptr %6, align 8, !tbaa !4
  %21 = add i64 %19, %20
  %22 = sub i64 %21, 1
  %23 = load i64, ptr %6, align 8, !tbaa !4
  %24 = udiv i64 %22, %23
  store i64 %24, ptr %9, align 8, !tbaa !4
  %25 = load i64, ptr %8, align 8, !tbaa !4
  %26 = load i64, ptr %9, align 8, !tbaa !4
  %27 = icmp ugt i64 %25, %26
  br i1 %27, label %28, label %30

28:                                               ; preds = %3
  %29 = load i64, ptr %8, align 8, !tbaa !4
  br label %32

30:                                               ; preds = %3
  %31 = load i64, ptr %9, align 8, !tbaa !4
  br label %32

32:                                               ; preds = %30, %28
  %33 = phi i64 [ %29, %28 ], [ %31, %30 ]
  call void @llvm.lifetime.end.p0(i64 8, ptr %9) #11
  call void @llvm.lifetime.end.p0(i64 8, ptr %8) #11
  call void @llvm.lifetime.end.p0(i64 8, ptr %7) #11
  ret i64 %33
}