; Function Attrs: mustprogress nofree norecurse nosync nounwind willreturn memory(none) uwtable
define dso_local i64 @meshopt_buildMeshletsBound(i64 noundef %0, i64 noundef %1, i64 noundef %2) local_unnamed_addr #0 {
  %4 = add i64 %1, -2
  %5 = add i64 %0, -1
  %6 = add i64 %5, %4
  %7 = udiv i64 %6, %4
  %8 = udiv i64 %0, 3
  %9 = add nsw i64 %8, -1
  %10 = add i64 %9, %2
  %11 = udiv i64 %10, %2
  %12 = tail call i64 @llvm.umax.i64(i64 %7, i64 %11)
  ret i64 %12
}